target datalayout = "e-m:e-p270:32:32-p271:32:32-p272:64:64-i64:64-i128:128-f80:128-n8:16:32:64-S128"
target triple = "x86_64-pc-linux-gnu"

%"class.gmx::ArrayRef" = type { %"struct.gmx::ArrayRefIter", %"struct.gmx::ArrayRefIter" }
%"struct.gmx::ArrayRefIter" = type { ptr }
%"class.gmx::BasicVector.6" = type { [3 x float] }

; Function Attrs: mustprogress nounwind uwtable
define linkonce_odr noundef nonnull align 4 dereferenceable(12) ptr @_ZNK3gmx12ArrayRefIterINS_11BasicVectorIfEEEdeEv(ptr noundef nonnull align 8 dereferenceable(8) %0) #2 comdat align 2 {
  %2 = alloca ptr, align 8
  store ptr %0, ptr %2, align 8, !tbaa !179
  %3 = load ptr, ptr %2, align 8
  %4 = getelementptr inbounds nuw %"struct.gmx::ArrayRefIter", ptr %3, i32 0, i32 0
  %5 = load ptr, ptr %4, align 8, !tbaa !181
  ret ptr %5
}

; Function Attrs: mustprogress nounwind uwtable
define linkonce_odr noundef nonnull align 8 dereferenceable(8) ptr @_ZN3gmx12ArrayRefIterINS_11BasicVectorIfEEEpLEl(ptr noundef nonnull align 8 dereferenceable(8) %0, i64 noundef %1) #2 comdat align 2 {
  %3 = alloca ptr, align 8
  %4 = alloca i64, align 8
  store ptr %0, ptr %3, align 8, !tbaa !179
  store i64 %1, ptr %4, align 8, !tbaa !21
  %5 = load ptr, ptr %3, align 8
  %6 = load i64, ptr %4, align 8, !tbaa !21
  %7 = getelementptr inbounds nuw %"struct.gmx::ArrayRefIter", ptr %5, i32 0, i32 0
  %8 = load ptr, ptr %7, align 8, !tbaa !181
  %9 = getelementptr inbounds %"class.gmx::BasicVector.6", ptr %8, i64 %6
  store ptr %9, ptr %7, align 8, !tbaa !181
  ret ptr %5
}

; Function Attrs: mustprogress nounwind uwtable
define linkonce_odr noundef nonnull align 8 dereferenceable(8) ptr @_ZNK3gmx5boost14stl_interfaces2v118iterator_interfaceINS_12ArrayRefIterINS_11BasicVectorIfEEEESt26random_access_iterator_tagS6_RS6_PS6_lvE7derivedEv(ptr noundef nonnull align 1 dereferenceable(1) %0) #2 comdat align 2 {
  %2 = alloca ptr, align 8
  store ptr %0, ptr %2, align 8, !tbaa !177
  %3 = load ptr, ptr %2, align 8
  ret ptr %3
}

; Function Attrs: mustprogress nounwind uwtable
define linkonce_odr noundef nonnull align 4 dereferenceable(12) ptr @_ZNK3gmx5boost14stl_interfaces2v118iterator_interfaceINS_12ArrayRefIterINS_11BasicVectorIfEEEESt26random_access_iterator_tagS6_RS6_PS6_lvEixIS7_EEDTcmpLclsr3stdE7declvalIRT_EEfp_declsr3stdE7declvalISE_EEEl(ptr noundef nonnull align 1 dereferenceable(1) %0, i64 noundef %1) #2 comdat align 2 {
  %3 = alloca ptr, align 8
  %4 = alloca i64, align 8
  %5 = alloca %"struct.gmx::ArrayRefIter", align 8
  store ptr %0, ptr %3, align 8, !tbaa !177
  store i64 %1, ptr %4, align 8, !tbaa !21
  %6 = load ptr, ptr %3, align 8
  call void @llvm.lifetime.start.p0(i64 8, ptr %5) #5
  %7 = call noundef nonnull align 8 dereferenceable(8) ptr @_ZNK3gmx5boost14stl_interfaces2v118iterator_interfaceINS_12ArrayRefIterINS_11BasicVectorIfEEEESt26random_access_iterator_tagS6_RS6_PS6_lvE7derivedEv(ptr noundef nonnull align 1 dereferenceable(1) %6) #5
  call void @llvm.memcpy.p0.p0.i64(ptr align 8 %5, ptr align 8 %7, i64 8, i1 false)
  %8 = load i64, ptr %4, align 8, !tbaa !21
  %9 = call noundef nonnull align 8 dereferenceable(8) ptr @_ZN3gmx12ArrayRefIterINS_11BasicVectorIfEEEpLEl(ptr noundef nonnull align 8 dereferenceable(8) %5, i64 noundef %8) #5
  %10 = call noundef nonnull align 4 dereferenceable(12) ptr @_ZNK3gmx12ArrayRefIterINS_11BasicVectorIfEEEdeEv(ptr noundef nonnull align 8 dereferenceable(8) %5) #5
  call void @llvm.lifetime.end.p0(i64 8, ptr %5) #5
  ret ptr %10
}

; Function Attrs: mustprogress nounwind uwtable
define linkonce_odr noundef nonnull align 4 dereferenceable(4) ptr @_ZN3gmx11BasicVectorIfEixEi(ptr noundef nonnull align 4 dereferenceable(12) %0, i32 noundef %1) #2 comdat align 2 {
  %3 = alloca ptr, align 8
  %4 = alloca i32, align 4
  store ptr %0, ptr %3, align 8, !tbaa !175
  store i32 %1, ptr %4, align 4, !tbaa !36
  %5 = load ptr, ptr %3, align 8
  %6 = getelementptr inbounds nuw %"class.gmx::BasicVector.6", ptr %5, i32 0, i32 0
  %7 = load i32, ptr %4, align 4, !tbaa !36
  %8 = sext i32 %7 to i64
  %9 = getelementptr inbounds [3 x float], ptr %6, i64 0, i64 %8
  ret ptr %9
}

; Function Attrs: mustprogress nounwind uwtable
define linkonce_odr noundef nonnull align 4 dereferenceable(12) ptr @_ZNK3gmx8ArrayRefINS_11BasicVectorIfEEEixEm(ptr noundef nonnull align 8 dereferenceable(16) %0, i64 noundef %1) #2 comdat align 2 {
  %3 = alloca ptr, align 8
  %4 = alloca i64, align 8
  store ptr %0, ptr %3, align 8, !tbaa !173
  store i64 %1, ptr %4, align 8, !tbaa !21
  %5 = load ptr, ptr %3, align 8
  %6 = getelementptr inbounds nuw %"class.gmx::ArrayRef", ptr %5, i32 0, i32 0
  %7 = load i64, ptr %4, align 8, !tbaa !21
  %8 = call noundef nonnull align 4 dereferenceable(12) ptr @_ZNK3gmx5boost14stl_interfaces2v118iterator_interfaceINS_12ArrayRefIterINS_11BasicVectorIfEEEESt26random_access_iterator_tagS6_RS6_PS6_lvEixIS7_EEDTcmpLclsr3stdE7declvalIRT_EEfp_declsr3stdE7declvalISE_EEEl(ptr noundef nonnull align 1 dereferenceable(1) %6, i64 noundef %7) #5
  ret ptr %8
}

; Function Attrs: mustprogress uwtable
define void @_Z11calc_shiftsPA3_KfN3gmx8ArrayRefINS2_11BasicVectorIfEEEE(ptr noundef %0, ptr %1, ptr %2) #3 {
  %4 = alloca %"class.gmx::ArrayRef", align 8
  %5 = alloca ptr, align 8
  %6 = alloca i32, align 4
  %7 = alloca i32, align 4
  %8 = alloca i32, align 4
  %9 = alloca i32, align 4
  %10 = alloca i32, align 4
  %11 = alloca i32, align 4
  %12 = getelementptr inbounds nuw { ptr, ptr }, ptr %4, i32 0, i32 0
  store ptr %1, ptr %12, align 8
  %13 = getelementptr inbounds nuw { ptr, ptr }, ptr %4, i32 0, i32 1
  store ptr %2, ptr %13, align 8
  store ptr %0, ptr %5, align 8, !tbaa !48
  call void @llvm.lifetime.start.p0(i64 4, ptr %6) #5
  store i32 0, ptr %6, align 4, !tbaa !36
  call void @llvm.lifetime.start.p0(i64 4, ptr %7) #5
  store i32 -1, ptr %7, align 4, !tbaa !36
  br label %14

14:                                               ; preds = %80, %3
  %15 = load i32, ptr %7, align 4, !tbaa !36
  %16 = icmp sle i32 %15, 1
  br i1 %16, label %18, label %17

17:                                               ; preds = %14
  store i32 2, ptr %8, align 4
  call void @llvm.lifetime.end.p0(i64 4, ptr %7) #5
  call void @llvm.lifetime.end.p0(i64 4, ptr %6) #5
  br label %83

18:                                               ; preds = %14
  call void @llvm.lifetime.start.p0(i64 4, ptr %9) #5
  store i32 -1, ptr %9, align 4, !tbaa !36
  br label %19

19:                                               ; preds = %76, %18
  %20 = load i32, ptr %9, align 4, !tbaa !36
  %21 = icmp sle i32 %20, 1
  br i1 %21, label %23, label %22

22:                                               ; preds = %19
  store i32 5, ptr %8, align 4
  call void @llvm.lifetime.end.p0(i64 4, ptr %9) #5
  br label %79

23:                                               ; preds = %19
  call void @llvm.lifetime.start.p0(i64 4, ptr %10) #5
  store i32 -2, ptr %10, align 4, !tbaa !36
  br label %24

24:                                               ; preds = %70, %23
  %25 = load i32, ptr %10, align 4, !tbaa !36
  %26 = icmp sle i32 %25, 2
  br i1 %26, label %28, label %27

27:                                               ; preds = %24
  store i32 8, ptr %8, align 4
  call void @llvm.lifetime.end.p0(i64 4, ptr %10) #5
  br label %75

28:                                               ; preds = %24
  call void @llvm.lifetime.start.p0(i64 4, ptr %11) #5
  store i32 0, ptr %11, align 4, !tbaa !36
  br label %29

29:                                               ; preds = %66, %28
  %30 = load i32, ptr %11, align 4, !tbaa !36
  %31 = icmp slt i32 %30, 3
  br i1 %31, label %33, label %32

32:                                               ; preds = %29
  store i32 11, ptr %8, align 4
  call void @llvm.lifetime.end.p0(i64 4, ptr %11) #5
  br label %69

33:                                               ; preds = %29
  %34 = load i32, ptr %10, align 4, !tbaa !36
  %35 = sitofp i32 %34 to float
  %36 = load ptr, ptr %5, align 8, !tbaa !48
  %37 = getelementptr inbounds [3 x float], ptr %36, i64 0
  %38 = load i32, ptr %11, align 4, !tbaa !36
  %39 = sext i32 %38 to i64
  %40 = getelementptr inbounds [3 x float], ptr %37, i64 0, i64 %39
  %41 = load float, ptr %40, align 4, !tbaa !50
  %42 = load i32, ptr %9, align 4, !tbaa !36
  %43 = sitofp i32 %42 to float
  %44 = load ptr, ptr %5, align 8, !tbaa !48
  %45 = getelementptr inbounds [3 x float], ptr %44, i64 1
  %46 = load i32, ptr %11, align 4, !tbaa !36
  %47 = sext i32 %46 to i64
  %48 = getelementptr inbounds [3 x float], ptr %45, i64 0, i64 %47
  %49 = load float, ptr %48, align 4, !tbaa !50
  %50 = fmul float %43, %49
  %51 = call float @llvm.fmuladd.f32(float %35, float %41, float %50)
  %52 = load i32, ptr %7, align 4, !tbaa !36
  %53 = sitofp i32 %52 to float
  %54 = load ptr, ptr %5, align 8, !tbaa !48
  %55 = getelementptr inbounds [3 x float], ptr %54, i64 2
  %56 = load i32, ptr %11, align 4, !tbaa !36
  %57 = sext i32 %56 to i64
  %58 = getelementptr inbounds [3 x float], ptr %55, i64 0, i64 %57
  %59 = load float, ptr %58, align 4, !tbaa !50
  %60 = call float @llvm.fmuladd.f32(float %53, float %59, float %51)
  %61 = load i32, ptr %6, align 4, !tbaa !36
  %62 = sext i32 %61 to i64
  %63 = call noundef nonnull align 4 dereferenceable(12) ptr @_ZNK3gmx8ArrayRefINS_11BasicVectorIfEEEixEm(ptr noundef nonnull align 8 dereferenceable(16) %4, i64 noundef %62)
  %64 = load i32, ptr %11, align 4, !tbaa !36
  %65 = call noundef nonnull align 4 dereferenceable(4) ptr @_ZN3gmx11BasicVectorIfEixEi(ptr noundef nonnull align 4 dereferenceable(12) %63, i32 noundef %64)
  store float %60, ptr %65, align 4, !tbaa !50
  br label %66

66:                                               ; preds = %33
  %67 = load i32, ptr %11, align 4, !tbaa !36
  %68 = add nsw i32 %67, 1
  store i32 %68, ptr %11, align 4, !tbaa !36
  br label %29, !llvm.loop !169

69:                                               ; preds = %32
  br label %70

70:                                               ; preds = %69
  %71 = load i32, ptr %10, align 4, !tbaa !36
  %72 = add nsw i32 %71, 1
  store i32 %72, ptr %10, align 4, !tbaa !36
  %73 = load i32, ptr %6, align 4, !tbaa !36
  %74 = add nsw i32 %73, 1
  store i32 %74, ptr %6, align 4, !tbaa !36
  br label %24, !llvm.loop !170

75:                                               ; preds = %27
  br label %76

76:                                               ; preds = %75
  %77 = load i32, ptr %9, align 4, !tbaa !36
  %78 = add nsw i32 %77, 1
  store i32 %78, ptr %9, align 4, !tbaa !36
  br label %19, !llvm.loop !171

79:                                               ; preds = %22
  br label %80

80:                                               ; preds = %79
  %81 = load i32, ptr %7, align 4, !tbaa !36
  %82 = add nsw i32 %81, 1
  store i32 %82, ptr %7, align 4, !tbaa !36
  br label %14, !llvm.loop !172

83:                                               ; preds = %17
  ret void
}