; Function Attrs: mustprogress nofree norecurse nosync nounwind memory(argmem: readwrite) uwtable
define void @_Z11calc_shiftsPA3_KfN3gmx8ArrayRefINS2_11BasicVectorIfEEEE(ptr noundef readonly captures(none) %0, ptr writeonly captures(none) %1, ptr readnone captures(none) %2) local_unnamed_addr #18 {
  %4 = getelementptr inbounds nuw i8, ptr %0, i64 12
  %5 = getelementptr inbounds nuw i8, ptr %0, i64 24
  br label %.preheader24

.preheader24:                                     ; preds = %3, %10
  %.02131 = phi i32 [ -1, %3 ], [ %11, %10 ]
  %.02230 = phi i64 [ 0, %3 ], [ %indvars.iv.next34, %10 ]
  %6 = sitofp i32 %.02131 to float
  br label %.preheader23

7:                                                ; preds = %10
  ret void

.preheader23:                                     ; preds = %.preheader24, %14
  %.02029 = phi i32 [ -1, %.preheader24 ], [ %15, %14 ]
  %.128 = phi i64 [ %.02230, %.preheader24 ], [ %indvars.iv.next34, %14 ]
  %8 = sitofp i32 %.02029 to float
  %sext = shl i64 %.128, 32
  %9 = ashr exact i64 %sext, 32
  br label %.preheader

10:                                               ; preds = %14
  %11 = add nsw i32 %.02131, 1
  %exitcond38.not = icmp eq i32 %11, 2
  br i1 %exitcond38.not, label %7, label %.preheader24, !llvm.loop !97

.preheader:                                       ; preds = %.preheader23, %16
  %indvars.iv33 = phi i64 [ %9, %.preheader23 ], [ %indvars.iv.next34, %16 ]
  %.01927 = phi i32 [ -2, %.preheader23 ], [ %17, %16 ]
  %12 = sitofp i32 %.01927 to float
  %13 = getelementptr inbounds %"class.gmx::BasicVector.6", ptr %1, i64 %indvars.iv33
  br label %18

14:                                               ; preds = %16
  %15 = add nsw i32 %.02029, 1
  %exitcond37.not = icmp eq i32 %15, 2
  br i1 %exitcond37.not, label %10, label %.preheader23, !llvm.loop !98

16:                                               ; preds = %18
  %17 = add nsw i32 %.01927, 1
  %indvars.iv.next34 = add nsw i64 %indvars.iv33, 1
  %exitcond36.not = icmp eq i32 %17, 3
  br i1 %exitcond36.not, label %14, label %.preheader, !llvm.loop !99

18:                                               ; preds = %.preheader, %18
  %indvars.iv = phi i64 [ 0, %.preheader ], [ %indvars.iv.next, %18 ]
  %19 = getelementptr inbounds nuw [3 x float], ptr %0, i64 0, i64 %indvars.iv
  %20 = load float, ptr %19, align 4, !tbaa !21
  %21 = getelementptr inbounds nuw [3 x float], ptr %4, i64 0, i64 %indvars.iv
  %22 = load float, ptr %21, align 4, !tbaa !21
  %23 = fmul float %22, %8
  %24 = tail call float @llvm.fmuladd.f32(float %12, float %20, float %23)
  %25 = getelementptr inbounds nuw [3 x float], ptr %5, i64 0, i64 %indvars.iv
  %26 = load float, ptr %25, align 4, !tbaa !21
  %27 = tail call float @llvm.fmuladd.f32(float %6, float %26, float %24)
  %28 = getelementptr inbounds nuw [3 x float], ptr %13, i64 0, i64 %indvars.iv
  store float %27, ptr %28, align 4, !tbaa !21
  %indvars.iv.next = add nuw nsw i64 %indvars.iv, 1
  %exitcond.not = icmp eq i64 %indvars.iv.next, 3
  br i1 %exitcond.not, label %16, label %18, !llvm.loop !100
}